target datalayout = "e-m:e-p270:32:32-p271:32:32-p272:64:64-i64:64-i128:128-f80:128-n8:16:32:64-S128"
target triple = "x86_64-pc-linux-gnu"

@.str.35 = private unnamed_addr constant [4 x i8] c"%lf\00", align 1

; Function Attrs: nounwind uwtable
define void @getdouble(ptr noundef %0, ptr noundef %1, ptr noundef %2) #0 {
  %4 = alloca ptr, align 8
  %5 = alloca ptr, align 8
  %6 = alloca ptr, align 8
  %7 = alloca ptr, align 8
  %8 = alloca double, align 8
  store ptr %0, ptr %4, align 8, !tbaa !14
  store ptr %1, ptr %5, align 8, !tbaa !3
  store ptr %2, ptr %6, align 8, !tbaa !87
  call void @llvm.lifetime.start.p0(i64 8, ptr %7) #16
  call void @llvm.lifetime.start.p0(i64 8, ptr %8) #16
  %9 = load ptr, ptr %4, align 8, !tbaa !14
  %10 = load ptr, ptr %5, align 8, !tbaa !3
  %11 = call ptr @agget(ptr noundef %9, ptr noundef %10)
  store ptr %11, ptr %7, align 8, !tbaa !3
  %12 = icmp ne ptr %11, null
  br i1 %12, label %13, label %21

13:                                               ; preds = %3
  %14 = load ptr, ptr %7, align 8, !tbaa !3
  %15 = call i32 (ptr, ptr, ...) @__isoc99_sscanf(ptr noundef %14, ptr noundef @.str.35, ptr noundef %8) #16
  %16 = icmp sge i32 %15, 1
  br i1 %16, label %17, label %20

17:                                               ; preds = %13
  %18 = load double, ptr %8, align 8, !tbaa !58
  %19 = load ptr, ptr %6, align 8, !tbaa !87
  store double %18, ptr %19, align 8, !tbaa !58
  br label %20

20:                                               ; preds = %17, %13
  br label %21

21:                                               ; preds = %20, %3
  call void @llvm.lifetime.end.p0(i64 8, ptr %8) #16
  call void @llvm.lifetime.end.p0(i64 8, ptr %7) #16
  ret void
}