; Function Attrs: nounwind uwtable
define void @getdouble(ptr noundef %0, ptr noundef %1, ptr noundef writeonly captures(none) %2) local_unnamed_addr #4 {
  %4 = alloca double, align 8
  call void @llvm.lifetime.start.p0(i64 8, ptr nonnull %4) #24
  %5 = tail call ptr @agget(ptr noundef %0, ptr noundef %1) #24
  %.not = icmp eq ptr %5, null
  br i1 %.not, label %11, label %6

6:                                                ; preds = %3
  %7 = call i32 (ptr, ptr, ...) @__isoc99_sscanf(ptr noundef nonnull %5, ptr noundef nonnull @.str.35, ptr noundef nonnull %4) #24
  %8 = icmp sgt i32 %7, 0
  br i1 %8, label %9, label %11

9:                                                ; preds = %6
  %10 = load double, ptr %4, align 8, !tbaa !59
  store double %10, ptr %2, align 8, !tbaa !59
  br label %11

11:                                               ; preds = %6, %9, %3
  call void @llvm.lifetime.end.p0(i64 8, ptr nonnull %4) #24
  ret void
}